target datalayout = "e-m:e-p270:32:32-p271:32:32-p272:64:64-i64:64-i128:128-f80:128-n8:16:32:64-S128"
target triple = "x86_64-pc-linux-gnu"

%struct.expert_field = type { i32, i32 }

@hf_catapult_dct2000_cellid = internal global i32 0, align 4
@hf_catapult_dct2000_lte_ccpri_opcode = internal global i32 0, align 4
@hf_catapult_dct2000_lte_ccpri_status = internal global i32 0, align 4
@hf_catapult_dct2000_lte_ccpri_channel = internal global i32 0, align 4
@ei_catapult_dct2000_lte_ccpri_status_error = internal global %struct.expert_field zeroinitializer, align 4
@.str.439 = private unnamed_addr constant [5 x i8] c"lapb\00", align 1

; Function Attrs: null_pointer_is_valid sspstrong uwtable
define internal void @dissect_ccpri_lte(ptr noundef %0, i32 noundef %1, ptr noundef %2, ptr noundef %3) #0 {
  %5 = alloca ptr, align 8
  %6 = alloca i32, align 4
  %7 = alloca ptr, align 8
  %8 = alloca ptr, align 8
  %9 = alloca i8, align 1
  %10 = alloca i8, align 1
  %11 = alloca ptr, align 8
  %12 = alloca ptr, align 8
  %13 = alloca i16, align 2
  %14 = alloca ptr, align 8
  %15 = alloca i8, align 1
  %16 = alloca i32, align 4
  store ptr %0, ptr %5, align 8
  store i32 %1, ptr %6, align 4
  store ptr %2, ptr %7, align 8
  store ptr %3, ptr %8, align 8
  call void @llvm.lifetime.start.p0(i64 1, ptr %9) #12
  call void @llvm.lifetime.start.p0(i64 1, ptr %10) #12
  call void @llvm.lifetime.start.p0(i64 8, ptr %11) #12
  call void @llvm.lifetime.start.p0(i64 8, ptr %12) #12
  store ptr null, ptr %12, align 8
  call void @llvm.lifetime.start.p0(i64 2, ptr %13) #12
  %17 = load ptr, ptr %8, align 8
  %18 = load i32, ptr @hf_catapult_dct2000_lte_ccpri_opcode, align 4
  %19 = load ptr, ptr %5, align 8
  %20 = load i32, ptr %6, align 4
  %21 = call ptr @proto_tree_add_item(ptr noundef %17, i32 noundef %18, ptr noundef %19, i32 noundef %20, i32 noundef 1, i32 noundef 0)
  %22 = load ptr, ptr %5, align 8
  %23 = load i32, ptr %6, align 4
  %24 = add i32 %23, 1
  store i32 %24, ptr %6, align 4
  %25 = call zeroext i8 @tvb_get_uint8(ptr noundef %22, i32 noundef %23)
  store i8 %25, ptr %9, align 1
  %26 = load i32, ptr %6, align 4
  %27 = add i32 %26, 2
  store i32 %27, ptr %6, align 4
  %28 = load ptr, ptr %8, align 8
  %29 = load i32, ptr @hf_catapult_dct2000_cellid, align 4
  %30 = load ptr, ptr %5, align 8
  %31 = load i32, ptr %6, align 4
  %32 = call ptr @proto_tree_add_item(ptr noundef %28, i32 noundef %29, ptr noundef %30, i32 noundef %31, i32 noundef 2, i32 noundef 0)
  %33 = load i32, ptr %6, align 4
  %34 = add i32 %33, 2
  store i32 %34, ptr %6, align 4
  %35 = load i8, ptr %9, align 1
  %36 = zext i8 %35 to i32
  %37 = icmp eq i32 %36, 2
  br i1 %37, label %38, label %57

38:                                               ; preds = %4
  call void @llvm.lifetime.start.p0(i64 8, ptr %14) #12
  call void @llvm.lifetime.start.p0(i64 1, ptr %15) #12
  %39 = load ptr, ptr %5, align 8
  %40 = load i32, ptr %6, align 4
  %41 = call zeroext i8 @tvb_get_uint8(ptr noundef %39, i32 noundef %40)
  store i8 %41, ptr %15, align 1
  %42 = load ptr, ptr %8, align 8
  %43 = load i32, ptr @hf_catapult_dct2000_lte_ccpri_status, align 4
  %44 = load ptr, ptr %5, align 8
  %45 = load i32, ptr %6, align 4
  %46 = call ptr @proto_tree_add_item(ptr noundef %42, i32 noundef %43, ptr noundef %44, i32 noundef %45, i32 noundef 1, i32 noundef 0)
  store ptr %46, ptr %14, align 8
  %47 = load i32, ptr %6, align 4
  %48 = add i32 %47, 1
  store i32 %48, ptr %6, align 4
  %49 = load i8, ptr %15, align 1
  %50 = zext i8 %49 to i32
  %51 = icmp ne i32 %50, 0
  br i1 %51, label %52, label %56

52:                                               ; preds = %38
  %53 = load ptr, ptr %7, align 8
  %54 = load ptr, ptr %14, align 8
  %55 = call ptr @expert_add_info(ptr noundef %53, ptr noundef %54, ptr noundef @ei_catapult_dct2000_lte_ccpri_status_error)
  br label %56

56:                                               ; preds = %52, %38
  call void @llvm.lifetime.end.p0(i64 1, ptr %15) #12
  call void @llvm.lifetime.end.p0(i64 8, ptr %14) #12
  br label %57

57:                                               ; preds = %56, %4
  %58 = load ptr, ptr %8, align 8
  %59 = load i32, ptr @hf_catapult_dct2000_lte_ccpri_channel, align 4
  %60 = load ptr, ptr %5, align 8
  %61 = load i32, ptr %6, align 4
  %62 = call ptr @proto_tree_add_item(ptr noundef %58, i32 noundef %59, ptr noundef %60, i32 noundef %61, i32 noundef 1, i32 noundef 0)
  %63 = load i32, ptr %6, align 4
  %64 = add i32 %63, 1
  store i32 %64, ptr %6, align 4
  %65 = load ptr, ptr %5, align 8
  %66 = load i32, ptr %6, align 4
  %67 = add i32 %66, 1
  store i32 %67, ptr %6, align 4
  %68 = call zeroext i8 @tvb_get_uint8(ptr noundef %65, i32 noundef %66)
  store i8 %68, ptr %10, align 1
  %69 = load i8, ptr %10, align 1
  %70 = zext i8 %69 to i32
  %71 = icmp ne i32 %70, 2
  br i1 %71, label %72, label %73

72:                                               ; preds = %57
  store i32 1, ptr %16, align 4
  br label %99

73:                                               ; preds = %57
  %74 = load ptr, ptr %5, align 8
  %75 = load i32, ptr %6, align 4
  %76 = call zeroext i16 @tvb_get_ntohs(ptr noundef %74, i32 noundef %75)
  store i16 %76, ptr %13, align 2
  %77 = load i32, ptr %6, align 4
  %78 = add i32 %77, 2
  store i32 %78, ptr %6, align 4
  %79 = call ptr @find_dissector(ptr noundef @.str.439)
  store ptr %79, ptr %12, align 8
  %80 = load ptr, ptr %12, align 8
  %81 = icmp ne ptr %80, null
  br i1 %81, label %82, label %98

82:                                               ; preds = %73
  %83 = load ptr, ptr %5, align 8
  %84 = load i32, ptr %6, align 4
  %85 = call i32 @tvb_reported_length_remaining(ptr noundef %83, i32 noundef %84)
  %86 = icmp sgt i32 %85, 0
  br i1 %86, label %87, label %98

87:                                               ; preds = %82
  %88 = load ptr, ptr %5, align 8
  %89 = load i32, ptr %6, align 4
  %90 = load i16, ptr %13, align 2
  %91 = zext i16 %90 to i32
  %92 = call ptr @tvb_new_subset_length(ptr noundef %88, i32 noundef %89, i32 noundef %91)
  store ptr %92, ptr %11, align 8
  %93 = load ptr, ptr %12, align 8
  %94 = load ptr, ptr %11, align 8
  %95 = load ptr, ptr %7, align 8
  %96 = load ptr, ptr %8, align 8
  %97 = call i32 @call_dissector_only(ptr noundef %93, ptr noundef %94, ptr noundef %95, ptr noundef %96, ptr noundef null)
  br label %98

98:                                               ; preds = %87, %82, %73
  store i32 0, ptr %16, align 4
  br label %99

99:                                               ; preds = %98, %72
  call void @llvm.lifetime.end.p0(i64 2, ptr %13) #12
  call void @llvm.lifetime.end.p0(i64 8, ptr %12) #12
  call void @llvm.lifetime.end.p0(i64 8, ptr %11) #12
  call void @llvm.lifetime.end.p0(i64 1, ptr %10) #12
  call void @llvm.lifetime.end.p0(i64 1, ptr %9) #12
  %100 = load i32, ptr %16, align 4
  switch i32 %100, label %102 [
    i32 0, label %101
    i32 1, label %101
  ]

101:                                              ; preds = %99, %99
  ret void

102:                                              ; preds = %99
  unreachable
}