; Function Attrs: null_pointer_is_valid sspstrong uwtable
define internal fastcc void @dissect_ccpri_lte(ptr noundef %0, i32 noundef %1, ptr noundef %2, ptr noundef %3) unnamed_addr #0 {
  %5 = load i32, ptr @hf_catapult_dct2000_lte_ccpri_opcode, align 4
  %6 = tail call ptr @proto_tree_add_item(ptr noundef %3, i32 noundef %5, ptr noundef %0, i32 noundef %1, i32 noundef 1, i32 noundef 0)
  %7 = tail call zeroext i8 @tvb_get_uint8(ptr noundef %0, i32 noundef %1)
  %8 = add i32 %1, 3
  %9 = load i32, ptr @hf_catapult_dct2000_cellid, align 4
  %10 = tail call ptr @proto_tree_add_item(ptr noundef %3, i32 noundef %9, ptr noundef %0, i32 noundef %8, i32 noundef 2, i32 noundef 0)
  %11 = add i32 %1, 5
  %12 = icmp eq i8 %7, 2
  br i1 %12, label %13, label %20

13:                                               ; preds = %4
  %14 = tail call zeroext i8 @tvb_get_uint8(ptr noundef %0, i32 noundef %11)
  %15 = load i32, ptr @hf_catapult_dct2000_lte_ccpri_status, align 4
  %16 = tail call ptr @proto_tree_add_item(ptr noundef %3, i32 noundef %15, ptr noundef %0, i32 noundef %11, i32 noundef 1, i32 noundef 0)
  %17 = add i32 %1, 6
  %.not = icmp eq i8 %14, 0
  br i1 %.not, label %20, label %18

18:                                               ; preds = %13
  %19 = tail call ptr @expert_add_info(ptr noundef %2, ptr noundef %16, ptr noundef nonnull @ei_catapult_dct2000_lte_ccpri_status_error)
  br label %20

20:                                               ; preds = %13, %18, %4
  %.0 = phi i32 [ %11, %4 ], [ %17, %18 ], [ %17, %13 ]
  %21 = load i32, ptr @hf_catapult_dct2000_lte_ccpri_channel, align 4
  %22 = tail call ptr @proto_tree_add_item(ptr noundef %3, i32 noundef %21, ptr noundef %0, i32 noundef %.0, i32 noundef 1, i32 noundef 0)
  %23 = add i32 %.0, 1
  %24 = tail call zeroext i8 @tvb_get_uint8(ptr noundef %0, i32 noundef %23)
  %.not40 = icmp eq i8 %24, 2
  br i1 %.not40, label %25, label %37

25:                                               ; preds = %20
  %26 = add i32 %.0, 2
  %27 = tail call zeroext i16 @tvb_get_ntohs(ptr noundef %0, i32 noundef %26)
  %28 = add i32 %.0, 4
  %29 = tail call ptr @find_dissector(ptr noundef nonnull @.str.439)
  %.not41 = icmp eq ptr %29, null
  br i1 %.not41, label %37, label %30

30:                                               ; preds = %25
  %31 = tail call i32 @tvb_reported_length_remaining(ptr noundef %0, i32 noundef %28)
  %32 = icmp sgt i32 %31, 0
  br i1 %32, label %33, label %37

33:                                               ; preds = %30
  %34 = zext i16 %27 to i32
  %35 = tail call ptr @tvb_new_subset_length(ptr noundef %0, i32 noundef %28, i32 noundef %34)
  %36 = tail call i32 @call_dissector_only(ptr noundef nonnull %29, ptr noundef %35, ptr noundef %2, ptr noundef %3, ptr noundef null)
  br label %37

37:                                               ; preds = %25, %30, %33, %20
  ret void
}